; ModuleID = '46/2153.c'
source_filename = "46/2153.c"
target datalayout = "e-m:e-p270:32:32-p271:32:32-p272:64:64-i64:64-f80:128-n8:16:32:64-S128"
target triple = "x86_64-pc-linux-gnu"

@.str = private unnamed_addr constant [4 x i8] c"%d\0A\00", align 1
@.str.1 = private unnamed_addr constant [5 x i8] c"%d%d\00", align 1
@.str.2 = private unnamed_addr constant [3 x i8] c"%d\00", align 1

; Function Attrs: noinline nounwind uwtable
define dso_local void @f([100 x i32]* %0, i32 %1, i32 %2, i32 %3) #0 {
  %5 = alloca [100 x i32]*, align 8
  %6 = alloca i32, align 4
  %7 = alloca i32, align 4
  %8 = alloca i32, align 4
  %9 = alloca i32, align 4
  %10 = alloca i32, align 4
  %11 = alloca i32, align 4
  %12 = alloca i32, align 4
  %13 = alloca i32*, align 8
  store [100 x i32]* %0, [100 x i32]** %5, align 8
  store i32 %1, i32* %6, align 4
  store i32 %2, i32* %7, align 4
  store i32 %3, i32* %8, align 4
  store i32 0, i32* %9, align 4
  %14 = load i32, i32* %7, align 4
  %15 = add nsw i32 %14, 1
  %16 = load i32, i32* %8, align 4
  %17 = add nsw i32 %16, 1
  %18 = mul nsw i32 %15, %17
  store i32 %18, i32* %12, align 4
  store i32 1, i32* %11, align 4
  br label %19

19:                                               ; preds = %146, %4
  %20 = load [100 x i32]*, [100 x i32]** %5, align 8
  %21 = load i32, i32* %6, align 4
  %22 = sext i32 %21 to i64
  %23 = getelementptr inbounds [100 x i32], [100 x i32]* %20, i64 %22
  %24 = load i32, i32* %6, align 4
  %25 = sext i32 %24 to i64
  %26 = getelementptr inbounds [100 x i32], [100 x i32]* %23, i64 0, i64 %25
  store i32* %26, i32** %13, align 8
  br label %27

27:                                               ; preds = %43, %19
  %28 = load i32*, i32** %13, align 8
  %29 = load [100 x i32]*, [100 x i32]** %5, align 8
  %30 = load i32, i32* %6, align 4
  %31 = sext i32 %30 to i64
  %32 = getelementptr inbounds [100 x i32], [100 x i32]* %29, i64 %31
  %33 = load i32, i32* %7, align 4
  %34 = sext i32 %33 to i64
  %35 = getelementptr inbounds [100 x i32], [100 x i32]* %32, i64 0, i64 %34
  %36 = icmp ule i32* %28, %35
  br i1 %36, label %37, label %46

37:                                               ; preds = %27
  %38 = load i32*, i32** %13, align 8
  %39 = load i32, i32* %38, align 4
  %40 = call i32 (i8*, ...) @printf(i8* getelementptr inbounds ([4 x i8], [4 x i8]* @.str, i64 0, i64 0), i32 %39)
  %41 = load i32, i32* %9, align 4
  %42 = add nsw i32 %41, 1
  store i32 %42, i32* %9, align 4
  br label %43

43:                                               ; preds = %37
  %44 = load i32*, i32** %13, align 8
  %45 = getelementptr inbounds i32, i32* %44, i32 1
  store i32* %45, i32** %13, align 8
  br label %27

46:                                               ; preds = %27
  %47 = load i32, i32* %9, align 4
  %48 = load i32, i32* %12, align 4
  %49 = icmp eq i32 %47, %48
  br i1 %49, label %50, label %51

50:                                               ; preds = %46
  br label %149

51:                                               ; preds = %46
  %52 = load i32, i32* %6, align 4
  %53 = add nsw i32 %52, 1
  store i32 %53, i32* %10, align 4
  br label %54

54:                                               ; preds = %70, %51
  %55 = load i32, i32* %10, align 4
  %56 = load i32, i32* %8, align 4
  %57 = icmp sle i32 %55, %56
  br i1 %57, label %58, label %73

58:                                               ; preds = %54
  %59 = load [100 x i32]*, [100 x i32]** %5, align 8
  %60 = load i32, i32* %10, align 4
  %61 = sext i32 %60 to i64
  %62 = getelementptr inbounds [100 x i32], [100 x i32]* %59, i64 %61
  %63 = load i32, i32* %7, align 4
  %64 = sext i32 %63 to i64
  %65 = getelementptr inbounds [100 x i32], [100 x i32]* %62, i64 0, i64 %64
  %66 = load i32, i32* %65, align 4
  %67 = call i32 (i8*, ...) @printf(i8* getelementptr inbounds ([4 x i8], [4 x i8]* @.str, i64 0, i64 0), i32 %66)
  %68 = load i32, i32* %9, align 4
  %69 = add nsw i32 %68, 1
  store i32 %69, i32* %9, align 4
  br label %70

70:                                               ; preds = %58
  %71 = load i32, i32* %10, align 4
  %72 = add nsw i32 %71, 1
  store i32 %72, i32* %10, align 4
  br label %54

73:                                               ; preds = %54
  %74 = load i32, i32* %9, align 4
  %75 = load i32, i32* %12, align 4
  %76 = icmp eq i32 %74, %75
  br i1 %76, label %77, label %78

77:                                               ; preds = %73
  br label %149

78:                                               ; preds = %73
  %79 = load [100 x i32]*, [100 x i32]** %5, align 8
  %80 = load i32, i32* %8, align 4
  %81 = sext i32 %80 to i64
  %82 = getelementptr inbounds [100 x i32], [100 x i32]* %79, i64 %81
  %83 = load i32, i32* %7, align 4
  %84 = sub nsw i32 %83, 1
  %85 = sext i32 %84 to i64
  %86 = getelementptr inbounds [100 x i32], [100 x i32]* %82, i64 0, i64 %85
  store i32* %86, i32** %13, align 8
  br label %87

87:                                               ; preds = %103, %78
  %88 = load i32*, i32** %13, align 8
  %89 = load [100 x i32]*, [100 x i32]** %5, align 8
  %90 = load i32, i32* %8, align 4
  %91 = sext i32 %90 to i64
  %92 = getelementptr inbounds [100 x i32], [100 x i32]* %89, i64 %91
  %93 = load i32, i32* %6, align 4
  %94 = sext i32 %93 to i64
  %95 = getelementptr inbounds [100 x i32], [100 x i32]* %92, i64 0, i64 %94
  %96 = icmp uge i32* %88, %95
  br i1 %96, label %97, label %106

97:                                               ; preds = %87
  %98 = load i32*, i32** %13, align 8
  %99 = load i32, i32* %98, align 4
  %100 = call i32 (i8*, ...) @printf(i8* getelementptr inbounds ([4 x i8], [4 x i8]* @.str, i64 0, i64 0), i32 %99)
  %101 = load i32, i32* %9, align 4
  %102 = add nsw i32 %101, 1
  store i32 %102, i32* %9, align 4
  br label %103

103:                                              ; preds = %97
  %104 = load i32*, i32** %13, align 8
  %105 = getelementptr inbounds i32, i32* %104, i32 -1
  store i32* %105, i32** %13, align 8
  br label %87

106:                                              ; preds = %87
  %107 = load i32, i32* %9, align 4
  %108 = load i32, i32* %12, align 4
  %109 = icmp eq i32 %107, %108
  br i1 %109, label %110, label %111

110:                                              ; preds = %106
  br label %149

111:                                              ; preds = %106
  %112 = load i32, i32* %8, align 4
  %113 = sub nsw i32 %112, 1
  store i32 %113, i32* %10, align 4
  br label %114

114:                                              ; preds = %131, %111
  %115 = load i32, i32* %10, align 4
  %116 = load i32, i32* %6, align 4
  %117 = add nsw i32 %116, 1
  %118 = icmp sge i32 %115, %117
  br i1 %118, label %119, label %134

119:                                              ; preds = %114
  %120 = load [100 x i32]*, [100 x i32]** %5, align 8
  %121 = load i32, i32* %10, align 4
  %122 = sext i32 %121 to i64
  %123 = getelementptr inbounds [100 x i32], [100 x i32]* %120, i64 %122
  %124 = load i32, i32* %6, align 4
  %125 = sext i32 %124 to i64
  %126 = getelementptr inbounds [100 x i32], [100 x i32]* %123, i64 0, i64 %125
  %127 = load i32, i32* %126, align 4
  %128 = call i32 (i8*, ...) @printf(i8* getelementptr inbounds ([4 x i8], [4 x i8]* @.str, i64 0, i64 0), i32 %127)
  %129 = load i32, i32* %9, align 4
  %130 = add nsw i32 %129, 1
  store i32 %130, i32* %9, align 4
  br label %131

131:                                              ; preds = %119
  %132 = load i32, i32* %10, align 4
  %133 = add nsw i32 %132, -1
  store i32 %133, i32* %10, align 4
  br label %114

134:                                              ; preds = %114
  %135 = load i32, i32* %9, align 4
  %136 = load i32, i32* %12, align 4
  %137 = icmp eq i32 %135, %136
  br i1 %137, label %138, label %139

138:                                              ; preds = %134
  br label %149

139:                                              ; preds = %134
  %140 = load i32, i32* %6, align 4
  %141 = add nsw i32 %140, 1
  store i32 %141, i32* %6, align 4
  %142 = load i32, i32* %7, align 4
  %143 = add nsw i32 %142, -1
  store i32 %143, i32* %7, align 4
  %144 = load i32, i32* %8, align 4
  %145 = add nsw i32 %144, -1
  store i32 %145, i32* %8, align 4
  br label %146

146:                                              ; preds = %139
  %147 = load i32, i32* %11, align 4
  %148 = add nsw i32 %147, 1
  store i32 %148, i32* %11, align 4
  br label %19

149:                                              ; preds = %138, %110, %77, %50
  ret void
}

declare dso_local i32 @printf(i8*, ...) #1

; Function Attrs: noinline nounwind uwtable
define dso_local void @main() #0 {
  %1 = alloca i32, align 4
  %2 = alloca i32, align 4
  %3 = alloca i32, align 4
  %4 = alloca i32, align 4
  %5 = alloca [100 x [100 x i32]], align 16
  %6 = alloca i32, align 4
  %7 = alloca i32, align 4
  %8 = alloca i32, align 4
  store i32 0, i32* %6, align 4
  %9 = call i32 (i8*, ...) @__isoc99_scanf(i8* getelementptr inbounds ([5 x i8], [5 x i8]* @.str.1, i64 0, i64 0), i32* %1, i32* %2)
  store i32 0, i32* %3, align 4
  br label %10

10:                                               ; preds = %31, %0
  %11 = load i32, i32* %3, align 4
  %12 = load i32, i32* %1, align 4
  %13 = icmp slt i32 %11, %12
  br i1 %13, label %14, label %34

14:                                               ; preds = %10
  store i32 0, i32* %4, align 4
  br label %15

15:                                               ; preds = %27, %14
  %16 = load i32, i32* %4, align 4
  %17 = load i32, i32* %2, align 4
  %18 = icmp slt i32 %16, %17
  br i1 %18, label %19, label %30

19:                                               ; preds = %15
  %20 = load i32, i32* %3, align 4
  %21 = sext i32 %20 to i64
  %22 = getelementptr inbounds [100 x [100 x i32]], [100 x [100 x i32]]* %5, i64 0, i64 %21
  %23 = load i32, i32* %4, align 4
  %24 = sext i32 %23 to i64
  %25 = getelementptr inbounds [100 x i32], [100 x i32]* %22, i64 0, i64 %24
  %26 = call i32 (i8*, ...) @__isoc99_scanf(i8* getelementptr inbounds ([3 x i8], [3 x i8]* @.str.2, i64 0, i64 0), i32* %25)
  br label %27

27:                                               ; preds = %19
  %28 = load i32, i32* %4, align 4
  %29 = add nsw i32 %28, 1
  store i32 %29, i32* %4, align 4
  br label %15

30:                                               ; preds = %15
  br label %31

31:                                               ; preds = %30
  %32 = load i32, i32* %3, align 4
  %33 = add nsw i32 %32, 1
  store i32 %33, i32* %3, align 4
  br label %10

34:                                               ; preds = %10
  %35 = load i32, i32* %2, align 4
  %36 = sub nsw i32 %35, 1
  store i32 %36, i32* %7, align 4
  %37 = load i32, i32* %1, align 4
  %38 = sub nsw i32 %37, 1
  store i32 %38, i32* %8, align 4
  %39 = getelementptr inbounds [100 x [100 x i32]], [100 x [100 x i32]]* %5, i64 0, i64 0
  %40 = load i32, i32* %6, align 4
  %41 = load i32, i32* %7, align 4
  %42 = load i32, i32* %8, align 4
  call void @f([100 x i32]* %39, i32 %40, i32 %41, i32 %42)
  ret void
}

declare dso_local i32 @__isoc99_scanf(i8*, ...) #1


!llvm.module.flags = !{!0}
!llvm.ident = !{!1}

!0 = !{i32 1, !"wchar_size", i32 4}
!1 = !{!"clang version 10.0.0-4ubuntu1 "}
